; ModuleID = 'source-C-CXX/51/4916.cpp'
source_filename = "source-C-CXX/51/4916.cpp"
target datalayout = "e-m:e-p270:32:32-p271:32:32-p272:64:64-i64:64-f80:128-n8:16:32:64-S128"
target triple = "x86_64-pc-linux-gnu"

%"class.std::ios_base::Init" = type { i8 }
%"class.std::basic_istream" = type { i32 (...)**, i64, %"class.std::basic_ios" }
%"class.std::basic_ios" = type { %"class.std::ios_base", %"class.std::basic_ostream"*, i8, i8, %"class.std::basic_streambuf"*, %"class.std::ctype"*, %"class.std::num_put"*, %"class.std::num_get"* }
%"class.std::ios_base" = type { i32 (...)**, i64, i64, i32, i32, i32, %"struct.std::ios_base::_Callback_list"*, %"struct.std::ios_base::_Words", [8 x %"struct.std::ios_base::_Words"], i32, %"struct.std::ios_base::_Words"*, %"class.std::locale" }
%"struct.std::ios_base::_Callback_list" = type { %"struct.std::ios_base::_Callback_list"*, void (i32, %"class.std::ios_base"*, i32)*, i32, i32 }
%"struct.std::ios_base::_Words" = type { i8*, i64 }
%"class.std::locale" = type { %"class.std::locale::_Impl"* }
%"class.std::locale::_Impl" = type { i32, %"class.std::locale::facet"**, i64, %"class.std::locale::facet"**, i8** }
%"class.std::locale::facet" = type <{ i32 (...)**, i32, [4 x i8] }>
%"class.std::basic_ostream" = type { i32 (...)**, %"class.std::basic_ios" }
%"class.std::basic_streambuf" = type { i32 (...)**, i8*, i8*, i8*, i8*, i8*, i8*, %"class.std::locale" }
%"class.std::ctype" = type <{ %"class.std::locale::facet.base", [4 x i8], %struct.__locale_struct*, i8, [7 x i8], i32*, i32*, i16*, i8, [256 x i8], [256 x i8], i8, [6 x i8] }>
%"class.std::locale::facet.base" = type <{ i32 (...)**, i32 }>
%struct.__locale_struct = type { [13 x %struct.__locale_data*], i16*, i32*, i32*, [13 x i8*] }
%struct.__locale_data = type opaque
%"class.std::num_put" = type { %"class.std::locale::facet.base", [4 x i8] }
%"class.std::num_get" = type { %"class.std::locale::facet.base", [4 x i8] }

@_ZStL8__ioinit = internal global %"class.std::ios_base::Init" zeroinitializer, align 1
@__dso_handle = external hidden global i8
@_ZSt3cin = external global %"class.std::basic_istream", align 8
@_ZSt4cout = external global %"class.std::basic_ostream", align 8
@llvm.global_ctors = appending global [1 x { i32, void ()*, i8* }] [{ i32, void ()*, i8* } { i32 65535, void ()* @_GLOBAL__sub_I_4916.cpp, i8* null }]

declare void @_ZNSt8ios_base4InitC1Ev(%"class.std::ios_base::Init"* nonnull align 1 dereferenceable(1)) unnamed_addr #0

; Function Attrs: nounwind
declare void @_ZNSt8ios_base4InitD1Ev(%"class.std::ios_base::Init"* nonnull align 1 dereferenceable(1)) unnamed_addr #1

; Function Attrs: nofree nounwind
declare i32 @__cxa_atexit(void (i8*)*, i8*, i8*) local_unnamed_addr #2

; Function Attrs: mustprogress norecurse sspstrong uwtable
define dso_local i32 @main() local_unnamed_addr #3 {
  %1 = alloca i8, align 1
  %2 = alloca i32, align 4
  %3 = alloca i32, align 4
  %4 = alloca [100 x i32], align 16
  %5 = bitcast i32* %2 to i8*
  call void @llvm.lifetime.start.p0i8(i64 4, i8* nonnull %5) #6
  %6 = bitcast i32* %3 to i8*
  call void @llvm.lifetime.start.p0i8(i64 4, i8* nonnull %6) #6
  %7 = bitcast [100 x i32]* %4 to i8*
  call void @llvm.lifetime.start.p0i8(i64 400, i8* nonnull %7) #6
  %8 = call nonnull align 8 dereferenceable(16) %"class.std::basic_istream"* @_ZNSirsERi(%"class.std::basic_istream"* nonnull align 8 dereferenceable(16) @_ZSt3cin, i32* nonnull align 4 dereferenceable(4) %2)
  %9 = call nonnull align 8 dereferenceable(16) %"class.std::basic_istream"* @_ZNSirsERi(%"class.std::basic_istream"* nonnull align 8 dereferenceable(16) %8, i32* nonnull align 4 dereferenceable(4) %3)
  %10 = load i32, i32* %2, align 4, !tbaa !5
  %11 = icmp sgt i32 %10, 0
  br i1 %11, label %20, label %12

12:                                               ; preds = %20, %0
  %13 = phi i32 [ %10, %0 ], [ %25, %20 ]
  %14 = load i32, i32* %3, align 4, !tbaa !5
  %15 = sub i32 %13, %14
  %16 = icmp sgt i32 %14, 0
  br i1 %16, label %17, label %28

17:                                               ; preds = %12
  %18 = zext i32 %14 to i64
  %19 = icmp sgt i32 %15, 0
  br label %36

20:                                               ; preds = %0, %20
  %21 = phi i64 [ %24, %20 ], [ 0, %0 ]
  %22 = getelementptr inbounds [100 x i32], [100 x i32]* %4, i64 0, i64 %21
  %23 = call nonnull align 8 dereferenceable(16) %"class.std::basic_istream"* @_ZNSirsERi(%"class.std::basic_istream"* nonnull align 8 dereferenceable(16) @_ZSt3cin, i32* nonnull align 4 dereferenceable(4) %22)
  %24 = add nuw nsw i64 %21, 1
  %25 = load i32, i32* %2, align 4, !tbaa !5
  %26 = sext i32 %25 to i64
  %27 = icmp slt i64 %24, %26
  br i1 %27, label %20, label %12, !llvm.loop !9

28:                                               ; preds = %60, %12
  %29 = icmp sgt i32 %13, 0
  br i1 %29, label %30, label %73

30:                                               ; preds = %28
  %31 = getelementptr inbounds [100 x i32], [100 x i32]* %4, i64 0, i64 0
  %32 = load i32, i32* %31, align 16, !tbaa !5
  %33 = call nonnull align 8 dereferenceable(8) %"class.std::basic_ostream"* @_ZNSolsEi(%"class.std::basic_ostream"* nonnull align 8 dereferenceable(8) @_ZSt4cout, i32 %32)
  %34 = load i32, i32* %2, align 4, !tbaa !5
  %35 = icmp sgt i32 %34, 1
  br i1 %35, label %63, label %73

36:                                               ; preds = %17, %60
  %37 = phi i64 [ 0, %17 ], [ %46, %60 ]
  %38 = phi i32 [ %15, %17 ], [ %61, %60 ]
  %39 = getelementptr inbounds [100 x i32], [100 x i32]* %4, i64 0, i64 %37
  %40 = load i32, i32* %39, align 4, !tbaa !5
  %41 = trunc i64 %37 to i32
  %42 = add nsw i32 %15, %41
  %43 = sext i32 %42 to i64
  %44 = getelementptr inbounds [100 x i32], [100 x i32]* %4, i64 0, i64 %43
  %45 = load i32, i32* %44, align 4, !tbaa !5
  store i32 %45, i32* %39, align 4, !tbaa !5
  %46 = add nuw nsw i64 %37, 1
  br i1 %19, label %47, label %60

47:                                               ; preds = %36
  %48 = sext i32 %38 to i64
  br label %49

49:                                               ; preds = %47, %56
  %50 = phi i64 [ %48, %47 ], [ %52, %56 ]
  %51 = icmp eq i64 %50, %46
  %52 = add nsw i64 %50, -1
  br i1 %51, label %56, label %53

53:                                               ; preds = %49
  %54 = getelementptr inbounds [100 x i32], [100 x i32]* %4, i64 0, i64 %52
  %55 = load i32, i32* %54, align 4, !tbaa !5
  br label %56

56:                                               ; preds = %49, %53
  %57 = phi i32 [ %55, %53 ], [ %40, %49 ]
  %58 = getelementptr inbounds [100 x i32], [100 x i32]* %4, i64 0, i64 %50
  store i32 %57, i32* %58, align 4
  %59 = icmp sgt i64 %52, %37
  br i1 %59, label %49, label %60, !llvm.loop !11

60:                                               ; preds = %56, %36
  %61 = add i32 %38, 1
  %62 = icmp eq i64 %46, %18
  br i1 %62, label %28, label %36, !llvm.loop !12

63:                                               ; preds = %30, %63
  %64 = phi i64 [ %70, %63 ], [ 1, %30 ]
  call void @llvm.lifetime.start.p0i8(i64 1, i8* nonnull %1)
  store i8 32, i8* %1, align 1, !tbaa !13
  %65 = call nonnull align 8 dereferenceable(8) %"class.std::basic_ostream"* @_ZSt16__ostream_insertIcSt11char_traitsIcEERSt13basic_ostreamIT_T0_ES6_PKS3_l(%"class.std::basic_ostream"* nonnull align 8 dereferenceable(8) @_ZSt4cout, i8* nonnull %1, i64 1)
  call void @llvm.lifetime.end.p0i8(i64 1, i8* nonnull %1)
  %66 = getelementptr inbounds [100 x i32], [100 x i32]* %4, i64 0, i64 %64
  %67 = load i32, i32* %66, align 4, !tbaa !5
  %68 = call nonnull align 8 dereferenceable(8) %"class.std::basic_ostream"* @_ZNSolsEi(%"class.std::basic_ostream"* nonnull align 8 dereferenceable(8) %65, i32 %67)
  %69 = load i32, i32* %2, align 4, !tbaa !5
  %70 = add nuw nsw i64 %64, 1
  %71 = sext i32 %69 to i64
  %72 = icmp slt i64 %70, %71
  br i1 %72, label %63, label %73, !llvm.loop !14

73:                                               ; preds = %63, %30, %28
  call void @llvm.lifetime.end.p0i8(i64 400, i8* nonnull %7) #6
  call void @llvm.lifetime.end.p0i8(i64 4, i8* nonnull %6) #6
  call void @llvm.lifetime.end.p0i8(i64 4, i8* nonnull %5) #6
  ret i32 0
}

; Function Attrs: argmemonly mustprogress nofree nosync nounwind willreturn
declare void @llvm.lifetime.start.p0i8(i64 immarg, i8* nocapture) #4

declare nonnull align 8 dereferenceable(16) %"class.std::basic_istream"* @_ZNSirsERi(%"class.std::basic_istream"* nonnull align 8 dereferenceable(16), i32* nonnull align 4 dereferenceable(4)) local_unnamed_addr #0

declare nonnull align 8 dereferenceable(8) %"class.std::basic_ostream"* @_ZNSolsEi(%"class.std::basic_ostream"* nonnull align 8 dereferenceable(8), i32) local_unnamed_addr #0

; Function Attrs: argmemonly mustprogress nofree nosync nounwind willreturn
declare void @llvm.lifetime.end.p0i8(i64 immarg, i8* nocapture) #4

declare nonnull align 8 dereferenceable(8) %"class.std::basic_ostream"* @_ZSt16__ostream_insertIcSt11char_traitsIcEERSt13basic_ostreamIT_T0_ES6_PKS3_l(%"class.std::basic_ostream"* nonnull align 8 dereferenceable(8), i8*, i64) local_unnamed_addr #0

; Function Attrs: sspstrong uwtable
define internal void @_GLOBAL__sub_I_4916.cpp() #5 section ".text.startup" {
  tail call void @_ZNSt8ios_base4InitC1Ev(%"class.std::ios_base::Init"* nonnull align 1 dereferenceable(1) @_ZStL8__ioinit)
  %1 = tail call i32 @__cxa_atexit(void (i8*)* bitcast (void (%"class.std::ios_base::Init"*)* @_ZNSt8ios_base4InitD1Ev to void (i8*)*), i8* getelementptr inbounds (%"class.std::ios_base::Init", %"class.std::ios_base::Init"* @_ZStL8__ioinit, i64 0, i32 0), i8* nonnull @__dso_handle) #6
  ret void
}


!llvm.module.flags = !{!0, !1, !2, !3}
!llvm.ident = !{!4}

!0 = !{i32 1, !"wchar_size", i32 4}
!1 = !{i32 7, !"PIC Level", i32 2}
!2 = !{i32 7, !"PIE Level", i32 2}
!3 = !{i32 7, !"uwtable", i32 1}
!4 = !{!"clang version 13.0.0"}
!5 = !{!6, !6, i64 0}
!6 = !{!"int", !7, i64 0}
!7 = !{!"omnipotent char", !8, i64 0}
!8 = !{!"Simple C++ TBAA"}
!9 = distinct !{!9, !10}
!10 = !{!"llvm.loop.mustprogress"}
!11 = distinct !{!11, !10}
!12 = distinct !{!12, !10}
!13 = !{!7, !7, i64 0}
!14 = distinct !{!14, !10, !15}
!15 = !{!"llvm.loop.peeled.count", i32 1}
